target datalayout = "e-m:e-p270:32:32-p271:32:32-p272:64:64-i64:64-i128:128-f80:128-n8:16:32:64-S128"
target triple = "x86_64-pc-linux-gnu"

%struct.archive_write_filter = type { i64, ptr, ptr, ptr, ptr, ptr, ptr, ptr, ptr, ptr, ptr, i32, i32, i32, i32 }
%struct.private_data = type { i64, i64, i64, i32, i32, i32, [69001 x i32], [69001 x i16], i32, i32, i32, i32, i32, i8, ptr, i64, i64 }

@rmask = internal constant [9 x i8] c"\00\01\03\07\0F\1F?\7F\FF", align 1

; Function Attrs: nounwind uwtable
define internal i32 @output_byte(ptr noundef %0, i8 noundef zeroext %1) #0 {
  %3 = alloca i32, align 4
  %4 = alloca ptr, align 8
  %5 = alloca i8, align 1
  %6 = alloca ptr, align 8
  %7 = alloca i32, align 4
  %8 = alloca i32, align 4
  store ptr %0, ptr %4, align 8, !tbaa !11
  store i8 %1, ptr %5, align 1, !tbaa !46
  call void @llvm.lifetime.start.p0(i64 8, ptr %6) #7
  %9 = load ptr, ptr %4, align 8, !tbaa !11
  %10 = getelementptr inbounds nuw %struct.archive_write_filter, ptr %9, i32 0, i32 9
  %11 = load ptr, ptr %10, align 8, !tbaa !48
  store ptr %11, ptr %6, align 8, !tbaa !22
  %12 = load i8, ptr %5, align 1, !tbaa !46
  %13 = load ptr, ptr %6, align 8, !tbaa !22
  %14 = getelementptr inbounds nuw %struct.private_data, ptr %13, i32 0, i32 14
  %15 = load ptr, ptr %14, align 8, !tbaa !32
  %16 = load ptr, ptr %6, align 8, !tbaa !22
  %17 = getelementptr inbounds nuw %struct.private_data, ptr %16, i32 0, i32 16
  %18 = load i64, ptr %17, align 8, !tbaa !47
  %19 = add i64 %18, 1
  store i64 %19, ptr %17, align 8, !tbaa !47
  %20 = getelementptr inbounds nuw i8, ptr %15, i64 %18
  store i8 %12, ptr %20, align 1, !tbaa !46
  %21 = load ptr, ptr %6, align 8, !tbaa !22
  %22 = getelementptr inbounds nuw %struct.private_data, ptr %21, i32 0, i32 1
  %23 = load i64, ptr %22, align 8, !tbaa !40
  %24 = add nsw i64 %23, 1
  store i64 %24, ptr %22, align 8, !tbaa !40
  %25 = load ptr, ptr %6, align 8, !tbaa !22
  %26 = getelementptr inbounds nuw %struct.private_data, ptr %25, i32 0, i32 15
  %27 = load i64, ptr %26, align 8, !tbaa !30
  %28 = load ptr, ptr %6, align 8, !tbaa !22
  %29 = getelementptr inbounds nuw %struct.private_data, ptr %28, i32 0, i32 16
  %30 = load i64, ptr %29, align 8, !tbaa !47
  %31 = icmp eq i64 %27, %30
  br i1 %31, label %32, label %52

32:                                               ; preds = %2
  call void @llvm.lifetime.start.p0(i64 4, ptr %7) #7
  %33 = load ptr, ptr %4, align 8, !tbaa !11
  %34 = getelementptr inbounds nuw %struct.archive_write_filter, ptr %33, i32 0, i32 2
  %35 = load ptr, ptr %34, align 8, !tbaa !57
  %36 = load ptr, ptr %6, align 8, !tbaa !22
  %37 = getelementptr inbounds nuw %struct.private_data, ptr %36, i32 0, i32 14
  %38 = load ptr, ptr %37, align 8, !tbaa !32
  %39 = load ptr, ptr %6, align 8, !tbaa !22
  %40 = getelementptr inbounds nuw %struct.private_data, ptr %39, i32 0, i32 15
  %41 = load i64, ptr %40, align 8, !tbaa !30
  %42 = call i32 @__archive_write_filter(ptr noundef %35, ptr noundef %38, i64 noundef %41)
  store i32 %42, ptr %7, align 4, !tbaa !13
  %43 = load i32, ptr %7, align 4, !tbaa !13
  %44 = icmp ne i32 %43, 0
  br i1 %44, label %45, label %46

45:                                               ; preds = %32
  store i32 -30, ptr %3, align 4
  store i32 1, ptr %8, align 4
  br label %49

46:                                               ; preds = %32
  %47 = load ptr, ptr %6, align 8, !tbaa !22
  %48 = getelementptr inbounds nuw %struct.private_data, ptr %47, i32 0, i32 16
  store i64 0, ptr %48, align 8, !tbaa !47
  store i32 0, ptr %8, align 4
  br label %49

49:                                               ; preds = %46, %45
  call void @llvm.lifetime.end.p0(i64 4, ptr %7) #7
  %50 = load i32, ptr %8, align 4
  switch i32 %50, label %53 [
    i32 0, label %51
  ]

51:                                               ; preds = %49
  br label %52

52:                                               ; preds = %51, %2
  store i32 0, ptr %3, align 4
  store i32 1, ptr %8, align 4
  br label %53

53:                                               ; preds = %52, %49
  call void @llvm.lifetime.end.p0(i64 8, ptr %6) #7
  %54 = load i32, ptr %3, align 4
  ret i32 %54
}

; Function Attrs: nounwind uwtable
define internal i32 @output_code(ptr noundef %0, i32 noundef %1) #0 {
  %3 = alloca i32, align 4
  %4 = alloca ptr, align 8
  %5 = alloca i32, align 4
  %6 = alloca ptr, align 8
  %7 = alloca i32, align 4
  %8 = alloca i32, align 4
  %9 = alloca i32, align 4
  %10 = alloca i32, align 4
  %11 = alloca i32, align 4
  store ptr %0, ptr %4, align 8, !tbaa !11
  store i32 %1, ptr %5, align 4, !tbaa !13
  call void @llvm.lifetime.start.p0(i64 8, ptr %6) #7
  %12 = load ptr, ptr %4, align 8, !tbaa !11
  %13 = getelementptr inbounds nuw %struct.archive_write_filter, ptr %12, i32 0, i32 9
  %14 = load ptr, ptr %13, align 8, !tbaa !48
  store ptr %14, ptr %6, align 8, !tbaa !22
  call void @llvm.lifetime.start.p0(i64 4, ptr %7) #7
  call void @llvm.lifetime.start.p0(i64 4, ptr %8) #7
  call void @llvm.lifetime.start.p0(i64 4, ptr %9) #7
  call void @llvm.lifetime.start.p0(i64 4, ptr %10) #7
  %15 = load i32, ptr %5, align 4, !tbaa !13
  %16 = icmp eq i32 %15, 256
  %17 = zext i1 %16 to i32
  store i32 %17, ptr %9, align 4, !tbaa !13
  %18 = load ptr, ptr %6, align 8, !tbaa !22
  %19 = getelementptr inbounds nuw %struct.private_data, ptr %18, i32 0, i32 12
  %20 = load i32, ptr %19, align 4, !tbaa !39
  %21 = srem i32 %20, 8
  store i32 %21, ptr %10, align 4, !tbaa !13
  %22 = load i32, ptr %5, align 4, !tbaa !13
  %23 = load i32, ptr %10, align 4, !tbaa !13
  %24 = shl i32 %22, %23
  %25 = and i32 %24, 255
  %26 = load ptr, ptr %6, align 8, !tbaa !22
  %27 = getelementptr inbounds nuw %struct.private_data, ptr %26, i32 0, i32 13
  %28 = load i8, ptr %27, align 8, !tbaa !38
  %29 = zext i8 %28 to i32
  %30 = or i32 %29, %25
  %31 = trunc i32 %30 to i8
  store i8 %31, ptr %27, align 8, !tbaa !38
  %32 = load ptr, ptr %4, align 8, !tbaa !11
  %33 = load ptr, ptr %6, align 8, !tbaa !22
  %34 = getelementptr inbounds nuw %struct.private_data, ptr %33, i32 0, i32 13
  %35 = load i8, ptr %34, align 8, !tbaa !38
  %36 = call i32 @output_byte(ptr noundef %32, i8 noundef zeroext %35)
  %37 = load ptr, ptr %6, align 8, !tbaa !22
  %38 = getelementptr inbounds nuw %struct.private_data, ptr %37, i32 0, i32 3
  %39 = load i32, ptr %38, align 8, !tbaa !43
  %40 = load i32, ptr %10, align 4, !tbaa !13
  %41 = sub nsw i32 8, %40
  %42 = sub nsw i32 %39, %41
  store i32 %42, ptr %7, align 4, !tbaa !13
  %43 = load i32, ptr %10, align 4, !tbaa !13
  %44 = sub nsw i32 8, %43
  %45 = load i32, ptr %5, align 4, !tbaa !13
  %46 = ashr i32 %45, %44
  store i32 %46, ptr %5, align 4, !tbaa !13
  %47 = load i32, ptr %7, align 4, !tbaa !13
  %48 = icmp sge i32 %47, 8
  br i1 %48, label %49, label %59

49:                                               ; preds = %2
  %50 = load ptr, ptr %4, align 8, !tbaa !11
  %51 = load i32, ptr %5, align 4, !tbaa !13
  %52 = and i32 %51, 255
  %53 = trunc i32 %52 to i8
  %54 = call i32 @output_byte(ptr noundef %50, i8 noundef zeroext %53)
  %55 = load i32, ptr %5, align 4, !tbaa !13
  %56 = ashr i32 %55, 8
  store i32 %56, ptr %5, align 4, !tbaa !13
  %57 = load i32, ptr %7, align 4, !tbaa !13
  %58 = sub nsw i32 %57, 8
  store i32 %58, ptr %7, align 4, !tbaa !13
  br label %59

59:                                               ; preds = %49, %2
  %60 = load ptr, ptr %6, align 8, !tbaa !22
  %61 = getelementptr inbounds nuw %struct.private_data, ptr %60, i32 0, i32 3
  %62 = load i32, ptr %61, align 8, !tbaa !43
  %63 = load ptr, ptr %6, align 8, !tbaa !22
  %64 = getelementptr inbounds nuw %struct.private_data, ptr %63, i32 0, i32 12
  %65 = load i32, ptr %64, align 4, !tbaa !39
  %66 = add nsw i32 %65, %62
  store i32 %66, ptr %64, align 4, !tbaa !39
  %67 = load i32, ptr %5, align 4, !tbaa !13
  %68 = load i32, ptr %7, align 4, !tbaa !13
  %69 = sext i32 %68 to i64
  %70 = getelementptr inbounds [9 x i8], ptr @rmask, i64 0, i64 %69
  %71 = load i8, ptr %70, align 1, !tbaa !46
  %72 = zext i8 %71 to i32
  %73 = and i32 %67, %72
  %74 = trunc i32 %73 to i8
  %75 = load ptr, ptr %6, align 8, !tbaa !22
  %76 = getelementptr inbounds nuw %struct.private_data, ptr %75, i32 0, i32 13
  store i8 %74, ptr %76, align 8, !tbaa !38
  %77 = load ptr, ptr %6, align 8, !tbaa !22
  %78 = getelementptr inbounds nuw %struct.private_data, ptr %77, i32 0, i32 12
  %79 = load i32, ptr %78, align 4, !tbaa !39
  %80 = load ptr, ptr %6, align 8, !tbaa !22
  %81 = getelementptr inbounds nuw %struct.private_data, ptr %80, i32 0, i32 3
  %82 = load i32, ptr %81, align 8, !tbaa !43
  %83 = mul nsw i32 %82, 8
  %84 = icmp eq i32 %79, %83
  br i1 %84, label %85, label %88

85:                                               ; preds = %59
  %86 = load ptr, ptr %6, align 8, !tbaa !22
  %87 = getelementptr inbounds nuw %struct.private_data, ptr %86, i32 0, i32 12
  store i32 0, ptr %87, align 4, !tbaa !39
  br label %88

88:                                               ; preds = %85, %59
  %89 = load i32, ptr %9, align 4, !tbaa !13
  %90 = icmp ne i32 %89, 0
  br i1 %90, label %99, label %91

91:                                               ; preds = %88
  %92 = load ptr, ptr %6, align 8, !tbaa !22
  %93 = getelementptr inbounds nuw %struct.private_data, ptr %92, i32 0, i32 8
  %94 = load i32, ptr %93, align 4, !tbaa !45
  %95 = load ptr, ptr %6, align 8, !tbaa !22
  %96 = getelementptr inbounds nuw %struct.private_data, ptr %95, i32 0, i32 4
  %97 = load i32, ptr %96, align 4, !tbaa !44
  %98 = icmp sgt i32 %94, %97
  br i1 %98, label %99, label %174

99:                                               ; preds = %91, %88
  %100 = load ptr, ptr %6, align 8, !tbaa !22
  %101 = getelementptr inbounds nuw %struct.private_data, ptr %100, i32 0, i32 12
  %102 = load i32, ptr %101, align 4, !tbaa !39
  %103 = icmp sgt i32 %102, 0
  br i1 %103, label %104, label %132

104:                                              ; preds = %99
  br label %105

105:                                              ; preds = %124, %104
  %106 = load ptr, ptr %6, align 8, !tbaa !22
  %107 = getelementptr inbounds nuw %struct.private_data, ptr %106, i32 0, i32 12
  %108 = load i32, ptr %107, align 4, !tbaa !39
  %109 = load ptr, ptr %6, align 8, !tbaa !22
  %110 = getelementptr inbounds nuw %struct.private_data, ptr %109, i32 0, i32 3
  %111 = load i32, ptr %110, align 8, !tbaa !43
  %112 = mul nsw i32 %111, 8
  %113 = icmp slt i32 %108, %112
  br i1 %113, label %114, label %131

114:                                              ; preds = %105
  %115 = load ptr, ptr %4, align 8, !tbaa !11
  %116 = load ptr, ptr %6, align 8, !tbaa !22
  %117 = getelementptr inbounds nuw %struct.private_data, ptr %116, i32 0, i32 13
  %118 = load i8, ptr %117, align 8, !tbaa !38
  %119 = call i32 @output_byte(ptr noundef %115, i8 noundef zeroext %118)
  store i32 %119, ptr %8, align 4, !tbaa !13
  %120 = load i32, ptr %8, align 4, !tbaa !13
  %121 = icmp ne i32 %120, 0
  br i1 %121, label %122, label %124

122:                                              ; preds = %114
  %123 = load i32, ptr %8, align 4, !tbaa !13
  store i32 %123, ptr %3, align 4
  store i32 1, ptr %11, align 4
  br label %175

124:                                              ; preds = %114
  %125 = load ptr, ptr %6, align 8, !tbaa !22
  %126 = getelementptr inbounds nuw %struct.private_data, ptr %125, i32 0, i32 12
  %127 = load i32, ptr %126, align 4, !tbaa !39
  %128 = add nsw i32 %127, 8
  store i32 %128, ptr %126, align 4, !tbaa !39
  %129 = load ptr, ptr %6, align 8, !tbaa !22
  %130 = getelementptr inbounds nuw %struct.private_data, ptr %129, i32 0, i32 13
  store i8 0, ptr %130, align 8, !tbaa !38
  br label %105, !llvm.loop !58

131:                                              ; preds = %105
  br label %132

132:                                              ; preds = %131, %99
  %133 = load ptr, ptr %6, align 8, !tbaa !22
  %134 = getelementptr inbounds nuw %struct.private_data, ptr %133, i32 0, i32 13
  store i8 0, ptr %134, align 8, !tbaa !38
  %135 = load ptr, ptr %6, align 8, !tbaa !22
  %136 = getelementptr inbounds nuw %struct.private_data, ptr %135, i32 0, i32 12
  store i32 0, ptr %136, align 4, !tbaa !39
  %137 = load i32, ptr %9, align 4, !tbaa !13
  %138 = icmp ne i32 %137, 0
  br i1 %138, label %139, label %149

139:                                              ; preds = %132
  %140 = load ptr, ptr %6, align 8, !tbaa !22
  %141 = getelementptr inbounds nuw %struct.private_data, ptr %140, i32 0, i32 3
  store i32 9, ptr %141, align 8, !tbaa !43
  %142 = load ptr, ptr %6, align 8, !tbaa !22
  %143 = getelementptr inbounds nuw %struct.private_data, ptr %142, i32 0, i32 3
  %144 = load i32, ptr %143, align 8, !tbaa !43
  %145 = shl i32 1, %144
  %146 = sub nsw i32 %145, 1
  %147 = load ptr, ptr %6, align 8, !tbaa !22
  %148 = getelementptr inbounds nuw %struct.private_data, ptr %147, i32 0, i32 4
  store i32 %146, ptr %148, align 4, !tbaa !44
  br label %173

149:                                              ; preds = %132
  %150 = load ptr, ptr %6, align 8, !tbaa !22
  %151 = getelementptr inbounds nuw %struct.private_data, ptr %150, i32 0, i32 3
  %152 = load i32, ptr %151, align 8, !tbaa !43
  %153 = add nsw i32 %152, 1
  store i32 %153, ptr %151, align 8, !tbaa !43
  %154 = load ptr, ptr %6, align 8, !tbaa !22
  %155 = getelementptr inbounds nuw %struct.private_data, ptr %154, i32 0, i32 3
  %156 = load i32, ptr %155, align 8, !tbaa !43
  %157 = icmp eq i32 %156, 16
  br i1 %157, label %158, label %164

158:                                              ; preds = %149
  %159 = load ptr, ptr %6, align 8, !tbaa !22
  %160 = getelementptr inbounds nuw %struct.private_data, ptr %159, i32 0, i32 5
  %161 = load i32, ptr %160, align 8, !tbaa !36
  %162 = load ptr, ptr %6, align 8, !tbaa !22
  %163 = getelementptr inbounds nuw %struct.private_data, ptr %162, i32 0, i32 4
  store i32 %161, ptr %163, align 4, !tbaa !44
  br label %172

164:                                              ; preds = %149
  %165 = load ptr, ptr %6, align 8, !tbaa !22
  %166 = getelementptr inbounds nuw %struct.private_data, ptr %165, i32 0, i32 3
  %167 = load i32, ptr %166, align 8, !tbaa !43
  %168 = shl i32 1, %167
  %169 = sub nsw i32 %168, 1
  %170 = load ptr, ptr %6, align 8, !tbaa !22
  %171 = getelementptr inbounds nuw %struct.private_data, ptr %170, i32 0, i32 4
  store i32 %169, ptr %171, align 4, !tbaa !44
  br label %172

172:                                              ; preds = %164, %158
  br label %173

173:                                              ; preds = %172, %139
  br label %174

174:                                              ; preds = %173, %91
  store i32 0, ptr %3, align 4
  store i32 1, ptr %11, align 4
  br label %175

175:                                              ; preds = %174, %122
  call void @llvm.lifetime.end.p0(i64 4, ptr %10) #7
  call void @llvm.lifetime.end.p0(i64 4, ptr %9) #7
  call void @llvm.lifetime.end.p0(i64 4, ptr %8) #7
  call void @llvm.lifetime.end.p0(i64 4, ptr %7) #7
  call void @llvm.lifetime.end.p0(i64 8, ptr %6) #7
  %176 = load i32, ptr %3, align 4
  ret i32 %176
}