; Function Attrs: nounwind uwtable
define internal fastcc range(i32 -30, 1) i32 @output_code(ptr noundef readonly captures(none) %0, i32 noundef %1) unnamed_addr #0 {
  %3 = getelementptr inbounds nuw i8, ptr %0, i64 72
  %4 = load ptr, ptr %3, align 8, !tbaa !36
  %5 = icmp eq i32 %1, 256
  %6 = getelementptr inbounds nuw i8, ptr %4, i64 414060
  %7 = load i32, ptr %6, align 4, !tbaa !46
  %8 = srem i32 %7, 8
  %9 = shl i32 %1, %8
  %10 = getelementptr inbounds nuw i8, ptr %4, i64 414064
  %11 = load i8, ptr %10, align 8, !tbaa !47
  %12 = trunc i32 %9 to i8
  %13 = or i8 %11, %12
  store i8 %13, ptr %10, align 8, !tbaa !47
  %14 = getelementptr inbounds nuw i8, ptr %4, i64 414072
  %15 = load ptr, ptr %14, align 8, !tbaa !24
  %16 = getelementptr inbounds nuw i8, ptr %4, i64 414088
  %17 = load i64, ptr %16, align 8, !tbaa !35
  %18 = add i64 %17, 1
  store i64 %18, ptr %16, align 8, !tbaa !35
  %19 = getelementptr inbounds nuw i8, ptr %15, i64 %17
  store i8 %13, ptr %19, align 1, !tbaa !34
  %20 = getelementptr inbounds nuw i8, ptr %4, i64 8
  %21 = load i64, ptr %20, align 8, !tbaa !29
  %22 = add nsw i64 %21, 1
  store i64 %22, ptr %20, align 8, !tbaa !29
  %23 = getelementptr inbounds nuw i8, ptr %4, i64 414080
  %24 = load i64, ptr %23, align 8, !tbaa !22
  %25 = load i64, ptr %16, align 8, !tbaa !35
  %26 = icmp eq i64 %24, %25
  br i1 %26, label %27, label %output_byte.exit

27:                                               ; preds = %2
  %28 = getelementptr inbounds nuw i8, ptr %0, i64 16
  %29 = load ptr, ptr %28, align 8, !tbaa !48
  %30 = load ptr, ptr %14, align 8, !tbaa !24
  %31 = tail call i32 @__archive_write_filter(ptr noundef %29, ptr noundef %30, i64 noundef %24) #7
  %.not.i = icmp eq i32 %31, 0
  br i1 %.not.i, label %32, label %output_byte.exit

32:                                               ; preds = %27
  store i64 0, ptr %16, align 8, !tbaa !35
  br label %output_byte.exit

output_byte.exit:                                 ; preds = %2, %27, %32
  %33 = getelementptr inbounds nuw i8, ptr %4, i64 24
  %34 = load i32, ptr %33, align 8, !tbaa !31
  %35 = sub nsw i32 8, %8
  %36 = sub nsw i32 %34, %35
  %37 = ashr i32 %1, %35
  %38 = icmp sgt i32 %36, 7
  br i1 %38, label %39, label %63

39:                                               ; preds = %output_byte.exit
  %40 = trunc i32 %37 to i8
  %41 = load ptr, ptr %3, align 8, !tbaa !36
  %42 = getelementptr inbounds nuw i8, ptr %41, i64 414072
  %43 = load ptr, ptr %42, align 8, !tbaa !24
  %44 = getelementptr inbounds nuw i8, ptr %41, i64 414088
  %45 = load i64, ptr %44, align 8, !tbaa !35
  %46 = add i64 %45, 1
  store i64 %46, ptr %44, align 8, !tbaa !35
  %47 = getelementptr inbounds nuw i8, ptr %43, i64 %45
  store i8 %40, ptr %47, align 1, !tbaa !34
  %48 = getelementptr inbounds nuw i8, ptr %41, i64 8
  %49 = load i64, ptr %48, align 8, !tbaa !29
  %50 = add nsw i64 %49, 1
  store i64 %50, ptr %48, align 8, !tbaa !29
  %51 = getelementptr inbounds nuw i8, ptr %41, i64 414080
  %52 = load i64, ptr %51, align 8, !tbaa !22
  %53 = load i64, ptr %44, align 8, !tbaa !35
  %54 = icmp eq i64 %52, %53
  br i1 %54, label %55, label %output_byte.exit56

55:                                               ; preds = %39
  %56 = getelementptr inbounds nuw i8, ptr %0, i64 16
  %57 = load ptr, ptr %56, align 8, !tbaa !48
  %58 = load ptr, ptr %42, align 8, !tbaa !24
  %59 = tail call i32 @__archive_write_filter(ptr noundef %57, ptr noundef %58, i64 noundef %52) #7
  %.not.i55 = icmp eq i32 %59, 0
  br i1 %.not.i55, label %60, label %output_byte.exit56

60:                                               ; preds = %55
  store i64 0, ptr %44, align 8, !tbaa !35
  br label %output_byte.exit56

output_byte.exit56:                               ; preds = %39, %55, %60
  %61 = ashr i32 %37, 8
  %62 = add nsw i32 %36, -8
  %.pre = load i32, ptr %33, align 8, !tbaa !31
  br label %63

63:                                               ; preds = %output_byte.exit56, %output_byte.exit
  %64 = phi i32 [ %.pre, %output_byte.exit56 ], [ %34, %output_byte.exit ]
  %.050 = phi i32 [ %62, %output_byte.exit56 ], [ %36, %output_byte.exit ]
  %.049 = phi i32 [ %61, %output_byte.exit56 ], [ %37, %output_byte.exit ]
  %65 = load i32, ptr %6, align 4, !tbaa !46
  %66 = add nsw i32 %65, %64
  store i32 %66, ptr %6, align 4, !tbaa !46
  %67 = sext i32 %.050 to i64
  %68 = getelementptr inbounds [9 x i8], ptr @rmask, i64 0, i64 %67
  %69 = load i8, ptr %68, align 1, !tbaa !34
  %70 = trunc i32 %.049 to i8
  %71 = and i8 %69, %70
  store i8 %71, ptr %10, align 8, !tbaa !47
  %72 = shl nsw i32 %64, 3
  %73 = icmp eq i32 %66, %72
  br i1 %73, label %74, label %75

74:                                               ; preds = %63
  store i32 0, ptr %6, align 4, !tbaa !46
  br label %75

75:                                               ; preds = %74, %63
  %76 = phi i32 [ 0, %74 ], [ %66, %63 ]
  br i1 %5, label %83, label %77

77:                                               ; preds = %75
  %78 = getelementptr inbounds nuw i8, ptr %4, i64 414044
  %79 = load i32, ptr %78, align 4, !tbaa !33
  %80 = getelementptr inbounds nuw i8, ptr %4, i64 28
  %81 = load i32, ptr %80, align 4, !tbaa !32
  %82 = icmp sgt i32 %79, %81
  br i1 %82, label %83, label %output_byte.exit59

83:                                               ; preds = %77, %75
  %84 = icmp sgt i32 %76, 0
  %85 = icmp slt i32 %76, %72
  %or.cond = and i1 %84, %85
  br i1 %or.cond, label %.lr.ph, label %.loopexit

.lr.ph:                                           ; preds = %83
  %86 = getelementptr inbounds nuw i8, ptr %0, i64 16
  br label %87

87:                                               ; preds = %.lr.ph, %108
  %88 = phi i8 [ %71, %.lr.ph ], [ 0, %108 ]
  %89 = load ptr, ptr %3, align 8, !tbaa !36
  %90 = getelementptr inbounds nuw i8, ptr %89, i64 414072
  %91 = load ptr, ptr %90, align 8, !tbaa !24
  %92 = getelementptr inbounds nuw i8, ptr %89, i64 414088
  %93 = load i64, ptr %92, align 8, !tbaa !35
  %94 = add i64 %93, 1
  store i64 %94, ptr %92, align 8, !tbaa !35
  %95 = getelementptr inbounds nuw i8, ptr %91, i64 %93
  store i8 %88, ptr %95, align 1, !tbaa !34
  %96 = getelementptr inbounds nuw i8, ptr %89, i64 8
  %97 = load i64, ptr %96, align 8, !tbaa !29
  %98 = add nsw i64 %97, 1
  store i64 %98, ptr %96, align 8, !tbaa !29
  %99 = getelementptr inbounds nuw i8, ptr %89, i64 414080
  %100 = load i64, ptr %99, align 8, !tbaa !22
  %101 = load i64, ptr %92, align 8, !tbaa !35
  %102 = icmp eq i64 %100, %101
  br i1 %102, label %103, label %108

103:                                              ; preds = %87
  %104 = load ptr, ptr %86, align 8, !tbaa !48
  %105 = load ptr, ptr %90, align 8, !tbaa !24
  %106 = tail call i32 @__archive_write_filter(ptr noundef %104, ptr noundef %105, i64 noundef %100) #7
  %.not.i58 = icmp eq i32 %106, 0
  br i1 %.not.i58, label %107, label %output_byte.exit59

107:                                              ; preds = %103
  store i64 0, ptr %92, align 8, !tbaa !35
  br label %108

108:                                              ; preds = %107, %87
  %109 = load i32, ptr %6, align 4, !tbaa !46
  %110 = add nsw i32 %109, 8
  store i32 %110, ptr %6, align 4, !tbaa !46
  store i8 0, ptr %10, align 8, !tbaa !47
  %111 = load i32, ptr %33, align 8, !tbaa !31
  %112 = shl nsw i32 %111, 3
  %113 = icmp slt i32 %110, %112
  br i1 %113, label %87, label %.loopexit, !llvm.loop !49

.loopexit:                                        ; preds = %108, %83
  %114 = phi i32 [ %64, %83 ], [ %111, %108 ]
  store i8 0, ptr %10, align 8, !tbaa !47
  store i32 0, ptr %6, align 4, !tbaa !46
  br i1 %5, label %115, label %117

115:                                              ; preds = %.loopexit
  store i32 9, ptr %33, align 8, !tbaa !31
  %116 = getelementptr inbounds nuw i8, ptr %4, i64 28
  store i32 511, ptr %116, align 4, !tbaa !32
  br label %output_byte.exit59

117:                                              ; preds = %.loopexit
  %118 = add nsw i32 %114, 1
  store i32 %118, ptr %33, align 8, !tbaa !31
  %119 = icmp eq i32 %118, 16
  %120 = getelementptr inbounds nuw i8, ptr %4, i64 28
  br i1 %119, label %121, label %124

121:                                              ; preds = %117
  %122 = getelementptr inbounds nuw i8, ptr %4, i64 32
  %123 = load i32, ptr %122, align 8, !tbaa !28
  store i32 %123, ptr %120, align 4, !tbaa !32
  br label %output_byte.exit59

124:                                              ; preds = %117
  %notmask = shl nsw i32 -1, %118
  %125 = xor i32 %notmask, -1
  store i32 %125, ptr %120, align 4, !tbaa !32
  br label %output_byte.exit59

output_byte.exit59:                               ; preds = %103, %77, %121, %124, %115
  %.0 = phi i32 [ 0, %115 ], [ 0, %124 ], [ 0, %121 ], [ 0, %77 ], [ -30, %103 ]
  ret i32 %.0
}